target datalayout = "e-m:e-p270:32:32-p271:32:32-p272:64:64-i64:64-i128:128-f80:128-n8:16:32:64-S128"
target triple = "x86_64-pc-linux-gnu"

%struct._lv_circle_buf_t = type { %struct._lv_array_t, i32, i32, i8 }
%struct._lv_array_t = type { ptr, i32, i32, i32, i8 }

; Function Attrs: nounwind uwtable
define internal void @circle_buf_prepare_empty(ptr noundef %0) #0 {
  %2 = alloca ptr, align 8
  %3 = alloca i32, align 4
  %4 = alloca i32, align 4
  store ptr %0, ptr %2, align 8, !tbaa !7
  call void @llvm.lifetime.start.p0(i64 4, ptr %3) #4
  %5 = load ptr, ptr %2, align 8, !tbaa !7
  %6 = getelementptr inbounds nuw %struct._lv_circle_buf_t, ptr %5, i32 0, i32 0
  %7 = call i32 @lv_array_capacity(ptr noundef %6)
  %8 = load ptr, ptr %2, align 8, !tbaa !7
  %9 = getelementptr inbounds nuw %struct._lv_circle_buf_t, ptr %8, i32 0, i32 0
  %10 = call i32 @lv_array_size(ptr noundef %9)
  %11 = sub i32 %7, %10
  store i32 %11, ptr %3, align 4, !tbaa !3
  call void @llvm.lifetime.start.p0(i64 4, ptr %4) #4
  store i32 0, ptr %4, align 4, !tbaa !3
  br label %12

12:                                               ; preds = %21, %1
  %13 = load i32, ptr %4, align 4, !tbaa !3
  %14 = load i32, ptr %3, align 4, !tbaa !3
  %15 = icmp ult i32 %13, %14
  br i1 %15, label %17, label %16

16:                                               ; preds = %12
  call void @llvm.lifetime.end.p0(i64 4, ptr %4) #4
  br label %24

17:                                               ; preds = %12
  %18 = load ptr, ptr %2, align 8, !tbaa !7
  %19 = getelementptr inbounds nuw %struct._lv_circle_buf_t, ptr %18, i32 0, i32 0
  %20 = call i32 @lv_array_push_back(ptr noundef %19, ptr noundef null)
  br label %21

21:                                               ; preds = %17
  %22 = load i32, ptr %4, align 4, !tbaa !3
  %23 = add i32 %22, 1
  store i32 %23, ptr %4, align 4, !tbaa !3
  br label %12, !llvm.loop !17

24:                                               ; preds = %16
  call void @llvm.lifetime.end.p0(i64 4, ptr %3) #4
  ret void
}

; Function Attrs: nounwind uwtable
define ptr @lv_circle_buf_create_from_buf(ptr noundef %0, i32 noundef %1, i32 noundef %2) #0 {
  %4 = alloca ptr, align 8
  %5 = alloca ptr, align 8
  %6 = alloca i32, align 4
  %7 = alloca i32, align 4
  %8 = alloca ptr, align 8
  %9 = alloca i32, align 4
  store ptr %0, ptr %5, align 8, !tbaa !19
  store i32 %1, ptr %6, align 4, !tbaa !3
  store i32 %2, ptr %7, align 4, !tbaa !3
  br label %10

10:                                               ; preds = %3
  %11 = load ptr, ptr %5, align 8, !tbaa !19
  %12 = icmp ne ptr %11, null
  br i1 %12, label %17, label %13

13:                                               ; preds = %10
  br label %14

14:                                               ; preds = %13
  br label %15

15:                                               ; preds = %14
  br label %16

16:                                               ; preds = %15, %16
  br label %16

17:                                               ; preds = %10
  br label %18

18:                                               ; preds = %17
  call void @llvm.lifetime.start.p0(i64 8, ptr %8) #4
  %19 = call ptr @lv_malloc(i64 noundef 40)
  store ptr %19, ptr %8, align 8, !tbaa !7
  br label %20

20:                                               ; preds = %18
  %21 = load ptr, ptr %8, align 8, !tbaa !7
  %22 = icmp ne ptr %21, null
  br i1 %22, label %29, label %23

23:                                               ; preds = %20
  br label %24

24:                                               ; preds = %23
  br label %25

25:                                               ; preds = %24
  br label %26

26:                                               ; preds = %25
  br label %27

27:                                               ; preds = %28, %26
  br label %28

28:                                               ; preds = %27
  br label %27

29:                                               ; preds = %20
  br label %30

30:                                               ; preds = %29
  br label %31

31:                                               ; preds = %30
  %32 = load ptr, ptr %8, align 8, !tbaa !7
  %33 = icmp eq ptr %32, null
  br i1 %33, label %34, label %35

34:                                               ; preds = %31
  store ptr null, ptr %4, align 8
  store i32 1, ptr %9, align 4
  br label %49

35:                                               ; preds = %31
  %36 = load ptr, ptr %8, align 8, !tbaa !7
  %37 = getelementptr inbounds nuw %struct._lv_circle_buf_t, ptr %36, i32 0, i32 0
  %38 = load ptr, ptr %5, align 8, !tbaa !19
  %39 = load i32, ptr %6, align 4, !tbaa !3
  %40 = load i32, ptr %7, align 4, !tbaa !3
  call void @lv_array_init_from_buf(ptr noundef %37, ptr noundef %38, i32 noundef %39, i32 noundef %40)
  %41 = load ptr, ptr %8, align 8, !tbaa !7
  %42 = getelementptr inbounds nuw %struct._lv_circle_buf_t, ptr %41, i32 0, i32 1
  store i32 0, ptr %42, align 8, !tbaa !10
  %43 = load ptr, ptr %8, align 8, !tbaa !7
  %44 = getelementptr inbounds nuw %struct._lv_circle_buf_t, ptr %43, i32 0, i32 2
  store i32 0, ptr %44, align 4, !tbaa !15
  %45 = load ptr, ptr %8, align 8, !tbaa !7
  %46 = getelementptr inbounds nuw %struct._lv_circle_buf_t, ptr %45, i32 0, i32 3
  store i8 0, ptr %46, align 8, !tbaa !16
  %47 = load ptr, ptr %8, align 8, !tbaa !7
  call void @circle_buf_prepare_empty(ptr noundef %47)
  %48 = load ptr, ptr %8, align 8, !tbaa !7
  store ptr %48, ptr %4, align 8
  store i32 1, ptr %9, align 4
  br label %49

49:                                               ; preds = %35, %34
  call void @llvm.lifetime.end.p0(i64 8, ptr %8) #4
  %50 = load ptr, ptr %4, align 8
  ret ptr %50
}