; Function Attrs: nounwind uwtable
define nonnull ptr @lv_circle_buf_create_from_buf(ptr noundef %0, i32 noundef %1, i32 noundef %2) local_unnamed_addr #0 {
  %.not = icmp eq ptr %0, null
  br i1 %.not, label %.preheader, label %4

.preheader:                                       ; preds = %3, %.preheader
  br label %.preheader

4:                                                ; preds = %3
  %5 = tail call ptr @lv_malloc(i64 noundef 40) #6
  %.not14 = icmp eq ptr %5, null
  br i1 %.not14, label %.preheader15, label %6

.preheader15:                                     ; preds = %4, %.preheader15
  br label %.preheader15

6:                                                ; preds = %4
  tail call void @lv_array_init_from_buf(ptr noundef nonnull %5, ptr noundef nonnull %0, i32 noundef %1, i32 noundef %2) #6
  %7 = getelementptr inbounds nuw i8, ptr %5, i64 24
  tail call void @llvm.memset.p0.i64(ptr noundef nonnull align 8 dereferenceable(9) %7, i8 0, i64 9, i1 false)
  %8 = tail call i32 @lv_array_capacity(ptr noundef nonnull %5) #6
  %9 = tail call i32 @lv_array_size(ptr noundef nonnull %5) #6
  %10 = sub i32 %8, %9
  %.not.i = icmp eq i32 %8, %9
  br i1 %.not.i, label %circle_buf_prepare_empty.exit, label %.lr.ph.i

.lr.ph.i:                                         ; preds = %6, %.lr.ph.i
  %.05.i = phi i32 [ %12, %.lr.ph.i ], [ 0, %6 ]
  %11 = tail call i32 @lv_array_push_back(ptr noundef nonnull %5, ptr noundef null) #6
  %12 = add nuw i32 %.05.i, 1
  %exitcond.not.i = icmp eq i32 %12, %10
  br i1 %exitcond.not.i, label %circle_buf_prepare_empty.exit, label %.lr.ph.i, !llvm.loop !14

circle_buf_prepare_empty.exit:                    ; preds = %.lr.ph.i, %6
  ret ptr %5
}